; Function Attrs: nofree norecurse nosync nounwind memory(readwrite, inaccessiblemem: none) uwtable
define hidden void @Index12GrayToIntArgbScaleConvert(ptr noundef %0, ptr noundef %1, i32 noundef %2, i32 noundef %3, i32 noundef %4, i32 noundef %5, i32 noundef %6, i32 noundef %7, i32 noundef %8, ptr nocapture noundef readonly %9, ptr nocapture noundef readonly %10, ptr nocapture readnone %11, ptr nocapture readnone %12) #0 {
  %14 = getelementptr inbounds i8, ptr %9, i64 40
  %15 = load ptr, ptr %14, align 8
  %16 = getelementptr inbounds i8, ptr %9, i64 32
  %17 = load i32, ptr %16, align 8
  %18 = getelementptr inbounds i8, ptr %10, i64 32
  %19 = load i32, ptr %18, align 8
  %20 = shl i32 %2, 2
  %21 = sub i32 %19, %20
  %22 = sext i32 %21 to i64
  %23 = ptrtoint ptr %0 to i64
  %24 = sext i32 %17 to i64
  br label %25

25:                                               ; preds = %45, %13
  %.030 = phi ptr [ %1, %13 ], [ %47, %45 ]
  %.027 = phi i32 [ %5, %13 ], [ %48, %45 ]
  %.0 = phi i32 [ %3, %13 ], [ %49, %45 ]
  %26 = ashr i32 %.027, %8
  %27 = sext i32 %26 to i64
  %28 = mul nsw i64 %27, %24
  %29 = add nsw i64 %28, %23
  %30 = inttoptr i64 %29 to ptr
  br label %31

31:                                               ; preds = %31, %25
  %.1 = phi ptr [ %.030, %25 ], [ %42, %31 ]
  %.029 = phi i32 [ %2, %25 ], [ %44, %31 ]
  %.028 = phi i32 [ %4, %25 ], [ %43, %31 ]
  %32 = ashr i32 %.028, %8
  %33 = sext i32 %32 to i64
  %34 = getelementptr inbounds i16, ptr %30, i64 %33
  %35 = load i16, ptr %34, align 2
  %36 = and i16 %35, 4095
  %37 = zext nneg i16 %36 to i64
  %38 = getelementptr inbounds i32, ptr %15, i64 %37
  %39 = load i32, ptr %38, align 4
  store i32 %39, ptr %.1, align 4
  %40 = ptrtoint ptr %.1 to i64
  %41 = add nsw i64 %40, 4
  %42 = inttoptr i64 %41 to ptr
  %43 = add nsw i32 %.028, %6
  %44 = add i32 %.029, -1
  %.not = icmp eq i32 %44, 0
  br i1 %.not, label %45, label %31, !llvm.loop !20

45:                                               ; preds = %31
  %46 = add nsw i64 %41, %22
  %47 = inttoptr i64 %46 to ptr
  %48 = add nsw i32 %.027, %7
  %49 = add i32 %.0, -1
  %.not32 = icmp eq i32 %49, 0
  br i1 %.not32, label %50, label %25, !llvm.loop !21

50:                                               ; preds = %45
  ret void
}